target datalayout = "e-m:e-p270:32:32-p271:32:32-p272:64:64-i64:64-i128:128-f80:128-n8:16:32:64-S128"
target triple = "x86_64-pc-linux-gnu"

%struct.SDL_AtomicInt = type { i32 }
%struct.SDL_DisplayMode = type { i32, i32, i32, i32, float, float, i32, i32, ptr }
%struct.SDL_HDROutputProperties = type { float, float }
%struct.SDL_Rect = type { i32, i32, i32, i32 }
%struct.SDL_VideoDevice = type { ptr, ptr, ptr, ptr, ptr, ptr, ptr, ptr, ptr, ptr, ptr, ptr, ptr, ptr, ptr, ptr, ptr, ptr, ptr, ptr, ptr, ptr, ptr, ptr, ptr, ptr, ptr, ptr, ptr, ptr, ptr, ptr, ptr, ptr, ptr, ptr, ptr, ptr, ptr, ptr, ptr, ptr, ptr, ptr, ptr, ptr, ptr, ptr, ptr, ptr, ptr, ptr, ptr, ptr, ptr, ptr, ptr, ptr, ptr, ptr, ptr, ptr, ptr, ptr, ptr, ptr, ptr, ptr, ptr, ptr, ptr, ptr, ptr, ptr, ptr, ptr, ptr, ptr, ptr, ptr, ptr, ptr, ptr, ptr, ptr, ptr, ptr, ptr, ptr, ptr, ptr, ptr, ptr, ptr, ptr, ptr, ptr, i64, i8, i8, i8, ptr, i32, ptr, %struct.SDL_Rect, ptr, ptr, i32, ptr, ptr, ptr, ptr, i64, ptr, i8, i32, i32, %struct.anon, ptr, ptr, ptr, ptr, ptr, ptr, %struct.SDL_AtomicInt, %struct.SDL_AtomicInt, i8, %struct.anon.0, ptr, ptr, ptr, ptr, ptr }
%struct.anon = type { i32, i32, i32, i32, i32, i32, i32, i32, i32, i32, i32, i32, i32, i32, i32, i32, i32, i32, i32, i32, i32, i32, i32, i32, i32, i32, i32, i32, i32, [256 x i8], ptr }
%struct.anon.0 = type { ptr, ptr, i32, [256 x i8], ptr }
%struct.SDL_VideoDisplay = type { i32, ptr, i32, i32, ptr, %struct.SDL_DisplayMode, ptr, i32, i32, float, %struct.SDL_HDROutputProperties, i8, ptr, ptr, i32, ptr }
%struct.SDL_Point = type { i32, i32 }

@_this = internal global ptr null, align 8
@.str.135 = private unnamed_addr constant [27 x i8] c"Couldn't find any displays\00", align 1

; Function Attrs: nounwind uwtable
define internal void @SDL_GetClosestPointOnRect(ptr noundef %0, ptr noundef %1) #0 {
  %3 = alloca ptr, align 8
  %4 = alloca ptr, align 8
  %5 = alloca i32, align 4
  %6 = alloca i32, align 4
  store ptr %0, ptr %3, align 8
  store ptr %1, ptr %4, align 8
  call void @llvm.lifetime.start.p0(i64 4, ptr %5) #10
  %7 = load ptr, ptr %3, align 8
  %8 = getelementptr inbounds nuw %struct.SDL_Rect, ptr %7, i32 0, i32 0
  %9 = load i32, ptr %8, align 4
  %10 = load ptr, ptr %3, align 8
  %11 = getelementptr inbounds nuw %struct.SDL_Rect, ptr %10, i32 0, i32 2
  %12 = load i32, ptr %11, align 4
  %13 = add nsw i32 %9, %12
  %14 = sub nsw i32 %13, 1
  store i32 %14, ptr %5, align 4
  call void @llvm.lifetime.start.p0(i64 4, ptr %6) #10
  %15 = load ptr, ptr %3, align 8
  %16 = getelementptr inbounds nuw %struct.SDL_Rect, ptr %15, i32 0, i32 1
  %17 = load i32, ptr %16, align 4
  %18 = load ptr, ptr %3, align 8
  %19 = getelementptr inbounds nuw %struct.SDL_Rect, ptr %18, i32 0, i32 3
  %20 = load i32, ptr %19, align 4
  %21 = add nsw i32 %17, %20
  %22 = sub nsw i32 %21, 1
  store i32 %22, ptr %6, align 4
  %23 = load ptr, ptr %4, align 8
  %24 = getelementptr inbounds nuw %struct.SDL_Point, ptr %23, i32 0, i32 0
  %25 = load i32, ptr %24, align 4
  %26 = load ptr, ptr %3, align 8
  %27 = getelementptr inbounds nuw %struct.SDL_Rect, ptr %26, i32 0, i32 0
  %28 = load i32, ptr %27, align 4
  %29 = icmp slt i32 %25, %28
  br i1 %29, label %30, label %36

30:                                               ; preds = %2
  %31 = load ptr, ptr %3, align 8
  %32 = getelementptr inbounds nuw %struct.SDL_Rect, ptr %31, i32 0, i32 0
  %33 = load i32, ptr %32, align 4
  %34 = load ptr, ptr %4, align 8
  %35 = getelementptr inbounds nuw %struct.SDL_Point, ptr %34, i32 0, i32 0
  store i32 %33, ptr %35, align 4
  br label %47

36:                                               ; preds = %2
  %37 = load ptr, ptr %4, align 8
  %38 = getelementptr inbounds nuw %struct.SDL_Point, ptr %37, i32 0, i32 0
  %39 = load i32, ptr %38, align 4
  %40 = load i32, ptr %5, align 4
  %41 = icmp sgt i32 %39, %40
  br i1 %41, label %42, label %46

42:                                               ; preds = %36
  %43 = load i32, ptr %5, align 4
  %44 = load ptr, ptr %4, align 8
  %45 = getelementptr inbounds nuw %struct.SDL_Point, ptr %44, i32 0, i32 0
  store i32 %43, ptr %45, align 4
  br label %46

46:                                               ; preds = %42, %36
  br label %47

47:                                               ; preds = %46, %30
  %48 = load ptr, ptr %4, align 8
  %49 = getelementptr inbounds nuw %struct.SDL_Point, ptr %48, i32 0, i32 1
  %50 = load i32, ptr %49, align 4
  %51 = load ptr, ptr %3, align 8
  %52 = getelementptr inbounds nuw %struct.SDL_Rect, ptr %51, i32 0, i32 1
  %53 = load i32, ptr %52, align 4
  %54 = icmp slt i32 %50, %53
  br i1 %54, label %55, label %61

55:                                               ; preds = %47
  %56 = load ptr, ptr %3, align 8
  %57 = getelementptr inbounds nuw %struct.SDL_Rect, ptr %56, i32 0, i32 1
  %58 = load i32, ptr %57, align 4
  %59 = load ptr, ptr %4, align 8
  %60 = getelementptr inbounds nuw %struct.SDL_Point, ptr %59, i32 0, i32 1
  store i32 %58, ptr %60, align 4
  br label %72

61:                                               ; preds = %47
  %62 = load ptr, ptr %4, align 8
  %63 = getelementptr inbounds nuw %struct.SDL_Point, ptr %62, i32 0, i32 1
  %64 = load i32, ptr %63, align 4
  %65 = load i32, ptr %6, align 4
  %66 = icmp sgt i32 %64, %65
  br i1 %66, label %67, label %71

67:                                               ; preds = %61
  %68 = load i32, ptr %6, align 4
  %69 = load ptr, ptr %4, align 8
  %70 = getelementptr inbounds nuw %struct.SDL_Point, ptr %69, i32 0, i32 1
  store i32 %68, ptr %70, align 4
  br label %71

71:                                               ; preds = %67, %61
  br label %72

72:                                               ; preds = %71, %55
  call void @llvm.lifetime.end.p0(i64 4, ptr %6) #10
  call void @llvm.lifetime.end.p0(i64 4, ptr %5) #10
  ret void
}

; Function Attrs: nounwind uwtable
define internal i32 @GetDisplayForRect(i32 noundef %0, i32 noundef %1, i32 noundef %2, i32 noundef %3) #0 {
  %5 = alloca i32, align 4
  %6 = alloca i32, align 4
  %7 = alloca i32, align 4
  %8 = alloca i32, align 4
  %9 = alloca i32, align 4
  %10 = alloca i32, align 4
  %11 = alloca i32, align 4
  %12 = alloca i32, align 4
  %13 = alloca i32, align 4
  %14 = alloca %struct.SDL_Point, align 4
  %15 = alloca %struct.SDL_Point, align 4
  %16 = alloca %struct.SDL_Point, align 4
  %17 = alloca ptr, align 8
  %18 = alloca %struct.SDL_Rect, align 4
  %19 = alloca i32, align 4
  store i32 %0, ptr %6, align 4
  store i32 %1, ptr %7, align 4
  store i32 %2, ptr %8, align 4
  store i32 %3, ptr %9, align 4
  call void @llvm.lifetime.start.p0(i64 4, ptr %10) #10
  call void @llvm.lifetime.start.p0(i64 4, ptr %11) #10
  call void @llvm.lifetime.start.p0(i64 4, ptr %12) #10
  store i32 0, ptr %12, align 4
  call void @llvm.lifetime.start.p0(i64 4, ptr %13) #10
  store i32 2147483647, ptr %13, align 4
  call void @llvm.lifetime.start.p0(i64 8, ptr %14) #10
  call void @llvm.lifetime.start.p0(i64 8, ptr %15) #10
  call void @llvm.lifetime.start.p0(i64 8, ptr %16) #10
  %20 = load i32, ptr %6, align 4
  %21 = load i32, ptr %8, align 4
  %22 = sdiv i32 %21, 2
  %23 = add nsw i32 %20, %22
  %24 = getelementptr inbounds nuw %struct.SDL_Point, ptr %16, i32 0, i32 0
  store i32 %23, ptr %24, align 4
  %25 = load i32, ptr %7, align 4
  %26 = load i32, ptr %9, align 4
  %27 = sdiv i32 %26, 2
  %28 = add nsw i32 %25, %27
  %29 = getelementptr inbounds nuw %struct.SDL_Point, ptr %16, i32 0, i32 1
  store i32 %28, ptr %29, align 4
  %30 = load ptr, ptr @_this, align 8
  %31 = icmp ne ptr %30, null
  br i1 %31, label %32, label %96

32:                                               ; preds = %4
  store i32 0, ptr %10, align 4
  br label %33

33:                                               ; preds = %92, %32
  %34 = load i32, ptr %10, align 4
  %35 = load ptr, ptr @_this, align 8
  %36 = getelementptr inbounds nuw %struct.SDL_VideoDevice, ptr %35, i32 0, i32 102
  %37 = load i32, ptr %36, align 8
  %38 = icmp slt i32 %34, %37
  br i1 %38, label %39, label %95

39:                                               ; preds = %33
  call void @llvm.lifetime.start.p0(i64 8, ptr %17) #10
  %40 = load ptr, ptr @_this, align 8
  %41 = getelementptr inbounds nuw %struct.SDL_VideoDevice, ptr %40, i32 0, i32 103
  %42 = load ptr, ptr %41, align 8
  %43 = load i32, ptr %10, align 4
  %44 = sext i32 %43 to i64
  %45 = getelementptr inbounds ptr, ptr %42, i64 %44
  %46 = load ptr, ptr %45, align 8
  store ptr %46, ptr %17, align 8
  call void @llvm.lifetime.start.p0(i64 16, ptr %18) #10
  %47 = load ptr, ptr %17, align 8
  %48 = getelementptr inbounds nuw %struct.SDL_VideoDisplay, ptr %47, i32 0, i32 0
  %49 = load i32, ptr %48, align 8
  %50 = call zeroext i1 @SDL_GetDisplayBounds_REAL(i32 noundef %49, ptr noundef %18)
  %51 = call zeroext i1 @SDL_GetRectEnclosingPoints_REAL(ptr noundef %16, i32 noundef 1, ptr noundef %18, ptr noundef null)
  br i1 %51, label %52, label %56

52:                                               ; preds = %39
  %53 = load ptr, ptr %17, align 8
  %54 = getelementptr inbounds nuw %struct.SDL_VideoDisplay, ptr %53, i32 0, i32 0
  %55 = load i32, ptr %54, align 8
  store i32 %55, ptr %5, align 4
  store i32 1, ptr %19, align 4
  br label %89

56:                                               ; preds = %39
  call void @llvm.memcpy.p0.p0.i64(ptr align 4 %14, ptr align 4 %16, i64 8, i1 false)
  call void @SDL_GetClosestPointOnRect(ptr noundef %18, ptr noundef %14)
  %57 = getelementptr inbounds nuw %struct.SDL_Point, ptr %16, i32 0, i32 0
  %58 = load i32, ptr %57, align 4
  %59 = getelementptr inbounds nuw %struct.SDL_Point, ptr %14, i32 0, i32 0
  %60 = load i32, ptr %59, align 4
  %61 = sub nsw i32 %58, %60
  %62 = getelementptr inbounds nuw %struct.SDL_Point, ptr %15, i32 0, i32 0
  store i32 %61, ptr %62, align 4
  %63 = getelementptr inbounds nuw %struct.SDL_Point, ptr %16, i32 0, i32 1
  %64 = load i32, ptr %63, align 4
  %65 = getelementptr inbounds nuw %struct.SDL_Point, ptr %14, i32 0, i32 1
  %66 = load i32, ptr %65, align 4
  %67 = sub nsw i32 %64, %66
  %68 = getelementptr inbounds nuw %struct.SDL_Point, ptr %15, i32 0, i32 1
  store i32 %67, ptr %68, align 4
  %69 = getelementptr inbounds nuw %struct.SDL_Point, ptr %15, i32 0, i32 0
  %70 = load i32, ptr %69, align 4
  %71 = getelementptr inbounds nuw %struct.SDL_Point, ptr %15, i32 0, i32 0
  %72 = load i32, ptr %71, align 4
  %73 = mul nsw i32 %70, %72
  %74 = getelementptr inbounds nuw %struct.SDL_Point, ptr %15, i32 0, i32 1
  %75 = load i32, ptr %74, align 4
  %76 = getelementptr inbounds nuw %struct.SDL_Point, ptr %15, i32 0, i32 1
  %77 = load i32, ptr %76, align 4
  %78 = mul nsw i32 %75, %77
  %79 = add nsw i32 %73, %78
  store i32 %79, ptr %11, align 4
  %80 = load i32, ptr %11, align 4
  %81 = load i32, ptr %13, align 4
  %82 = icmp slt i32 %80, %81
  br i1 %82, label %83, label %88

83:                                               ; preds = %56
  %84 = load ptr, ptr %17, align 8
  %85 = getelementptr inbounds nuw %struct.SDL_VideoDisplay, ptr %84, i32 0, i32 0
  %86 = load i32, ptr %85, align 8
  store i32 %86, ptr %12, align 4
  %87 = load i32, ptr %11, align 4
  store i32 %87, ptr %13, align 4
  br label %88

88:                                               ; preds = %83, %56
  store i32 0, ptr %19, align 4
  br label %89

89:                                               ; preds = %88, %52
  call void @llvm.lifetime.end.p0(i64 16, ptr %18) #10
  call void @llvm.lifetime.end.p0(i64 8, ptr %17) #10
  %90 = load i32, ptr %19, align 4
  switch i32 %90, label %103 [
    i32 0, label %91
  ]

91:                                               ; preds = %89
  br label %92

92:                                               ; preds = %91
  %93 = load i32, ptr %10, align 4
  %94 = add nsw i32 %93, 1
  store i32 %94, ptr %10, align 4
  br label %33, !llvm.loop !28

95:                                               ; preds = %33
  br label %96

96:                                               ; preds = %95, %4
  %97 = load i32, ptr %12, align 4
  %98 = icmp eq i32 %97, 0
  br i1 %98, label %99, label %101

99:                                               ; preds = %96
  %100 = call zeroext i1 (ptr, ...) @SDL_SetError_REAL(ptr noundef @.str.135)
  br label %101

101:                                              ; preds = %99, %96
  %102 = load i32, ptr %12, align 4
  store i32 %102, ptr %5, align 4
  store i32 1, ptr %19, align 4
  br label %103

103:                                              ; preds = %101, %89
  call void @llvm.lifetime.end.p0(i64 8, ptr %16) #10
  call void @llvm.lifetime.end.p0(i64 8, ptr %15) #10
  call void @llvm.lifetime.end.p0(i64 8, ptr %14) #10
  call void @llvm.lifetime.end.p0(i64 4, ptr %13) #10
  call void @llvm.lifetime.end.p0(i64 4, ptr %12) #10
  call void @llvm.lifetime.end.p0(i64 4, ptr %11) #10
  call void @llvm.lifetime.end.p0(i64 4, ptr %10) #10
  %104 = load i32, ptr %5, align 4
  ret i32 %104
}