; Function Attrs: nounwind uwtable
define internal fastcc i32 @GetDisplayForRect(i32 noundef %0, i32 noundef %1, i32 noundef %2, i32 noundef %3) unnamed_addr #0 {
  %5 = alloca %struct.SDL_Point, align 8
  %6 = alloca %struct.SDL_Rect, align 4
  call void @llvm.lifetime.start.p0(i64 8, ptr nonnull %5) #19
  %7 = sdiv i32 %2, 2
  %8 = add nsw i32 %7, %0
  store i32 %8, ptr %5, align 8
  %9 = sdiv i32 %3, 2
  %10 = add nsw i32 %9, %1
  %11 = getelementptr inbounds nuw i8, ptr %5, i64 4
  store i32 %10, ptr %11, align 4
  %12 = load ptr, ptr @_this, align 8
  %.not = icmp eq ptr %12, null
  br i1 %.not, label %.thread35, label %.preheader

.preheader:                                       ; preds = %4
  %13 = getelementptr inbounds nuw i8, ptr %12, i64 800
  %14 = load i32, ptr %13, align 8
  %15 = icmp sgt i32 %14, 0
  br i1 %15, label %.lr.ph, label %.thread35

.lr.ph:                                           ; preds = %.preheader
  %16 = getelementptr inbounds nuw i8, ptr %6, i64 4
  %17 = getelementptr inbounds nuw i8, ptr %6, i64 12
  %18 = getelementptr inbounds nuw i8, ptr %6, i64 8
  br label %19

19:                                               ; preds = %.lr.ph, %51
  %indvars.iv = phi i64 [ 0, %.lr.ph ], [ %indvars.iv.next, %51 ]
  %20 = phi ptr [ %12, %.lr.ph ], [ %52, %51 ]
  %.12141 = phi i32 [ 0, %.lr.ph ], [ %.222.ph, %51 ]
  %.02340 = phi i32 [ 2147483647, %.lr.ph ], [ %.124.ph, %51 ]
  %21 = getelementptr inbounds nuw i8, ptr %20, i64 808
  %22 = load ptr, ptr %21, align 8
  %23 = getelementptr inbounds nuw ptr, ptr %22, i64 %indvars.iv
  %24 = load ptr, ptr %23, align 8
  call void @llvm.lifetime.start.p0(i64 16, ptr nonnull %6) #19
  %25 = load i32, ptr %24, align 8
  %26 = call zeroext i1 @SDL_GetDisplayBounds_REAL(i32 noundef %25, ptr noundef nonnull %6)
  %27 = call zeroext i1 @SDL_GetRectEnclosingPoints_REAL(ptr noundef nonnull %5, i32 noundef 1, ptr noundef nonnull %6, ptr noundef null) #19
  br i1 %27, label %49, label %28

28:                                               ; preds = %19
  %29 = load i64, ptr %5, align 8
  %.sroa.0.0.extract.trunc = trunc i64 %29 to i32
  %.sroa.6.0.extract.shift = lshr i64 %29, 32
  %.sroa.6.0.extract.trunc = trunc nuw i64 %.sroa.6.0.extract.shift to i32
  %30 = load i32, ptr %6, align 4
  %31 = load i32, ptr %16, align 4
  %32 = load i32, ptr %17, align 4
  %33 = add nsw i32 %32, %31
  %34 = add nsw i32 %33, -1
  %35 = icmp sgt i32 %30, %.sroa.0.0.extract.trunc
  br i1 %35, label %.sink.split.i, label %36

36:                                               ; preds = %28
  %37 = load i32, ptr %18, align 4
  %38 = add nsw i32 %37, %30
  %39 = add nsw i32 %38, -1
  %.not.i = icmp sgt i32 %38, %.sroa.0.0.extract.trunc
  %spec.select = select i1 %.not.i, i32 %.sroa.0.0.extract.trunc, i32 %39
  br label %.sink.split.i

.sink.split.i:                                    ; preds = %36, %28
  %.sroa.0.0 = phi i32 [ %30, %28 ], [ %spec.select, %36 ]
  %40 = icmp sgt i32 %31, %.sroa.6.0.extract.trunc
  %.not24.i = icmp sgt i32 %33, %.sroa.6.0.extract.trunc
  %spec.select38 = select i1 %.not24.i, i32 %.sroa.6.0.extract.trunc, i32 %34
  %.sroa.6.0 = select i1 %40, i32 %31, i32 %spec.select38
  %41 = sub nsw i32 %.sroa.0.0.extract.trunc, %.sroa.0.0
  %42 = sub nsw i32 %.sroa.6.0.extract.trunc, %.sroa.6.0
  %43 = mul nsw i32 %41, %41
  %44 = mul nsw i32 %42, %42
  %45 = add nuw nsw i32 %44, %43
  %46 = icmp slt i32 %45, %.02340
  br i1 %46, label %47, label %51

47:                                               ; preds = %.sink.split.i
  %48 = load i32, ptr %24, align 8
  br label %51

49:                                               ; preds = %19
  %50 = load i32, ptr %24, align 8
  call void @llvm.lifetime.end.p0(i64 16, ptr nonnull %6) #19
  br label %59

51:                                               ; preds = %.sink.split.i, %47
  %.124.ph = phi i32 [ %.02340, %.sink.split.i ], [ %45, %47 ]
  %.222.ph = phi i32 [ %.12141, %.sink.split.i ], [ %48, %47 ]
  call void @llvm.lifetime.end.p0(i64 16, ptr nonnull %6) #19
  %indvars.iv.next = add nuw nsw i64 %indvars.iv, 1
  %52 = load ptr, ptr @_this, align 8
  %53 = getelementptr inbounds nuw i8, ptr %52, i64 800
  %54 = load i32, ptr %53, align 8
  %55 = sext i32 %54 to i64
  %56 = icmp slt i64 %indvars.iv.next, %55
  br i1 %56, label %19, label %._crit_edge, !llvm.loop !27

._crit_edge:                                      ; preds = %51
  %57 = icmp eq i32 %.222.ph, 0
  br i1 %57, label %.thread35, label %59

.thread35:                                        ; preds = %.preheader, %4, %._crit_edge
  %58 = call zeroext i1 (ptr, ...) @SDL_SetError_REAL(ptr noundef nonnull @.str.135) #19
  br label %59

59:                                               ; preds = %49, %._crit_edge, %.thread35
  %.2 = phi i32 [ %50, %49 ], [ 0, %.thread35 ], [ %.222.ph, %._crit_edge ]
  call void @llvm.lifetime.end.p0(i64 8, ptr nonnull %5) #19
  ret i32 %.2
}